; Function Attrs: nounwind uwtable
define dso_local range(i32 -30, 1) i32 @archive_read_support_format_zip_seekable(ptr noundef %0) local_unnamed_addr #0 {
  %2 = tail call i32 @__archive_check_magic(ptr noundef %0, i32 noundef 14594245, i32 noundef 1, ptr noundef nonnull @.str.3) #21
  %.not = icmp eq i32 %2, -30
  br i1 %.not, label %12, label %3

3:                                                ; preds = %1
  %4 = tail call noalias dereferenceable_or_null(8232) ptr @calloc(i64 noundef 1, i64 noundef 8232) #22
  %5 = icmp eq ptr %4, null
  br i1 %5, label %6, label %7

6:                                                ; preds = %3
  tail call void (ptr, i32, ptr, ...) @archive_set_error(ptr noundef %0, i32 noundef 12, ptr noundef nonnull @.str.1) #21
  br label %12

7:                                                ; preds = %3
  %8 = getelementptr inbounds nuw i8, ptr %4, i64 56
  store i32 -1, ptr %8, align 8, !tbaa !4
  %9 = getelementptr inbounds nuw i8, ptr %4, i64 152
  store ptr @real_crc32, ptr %9, align 8, !tbaa !35
  %10 = tail call i32 @__archive_read_register_format(ptr noundef %0, ptr noundef nonnull %4, ptr noundef nonnull @.str.2, ptr noundef nonnull @archive_read_format_zip_seekable_bid, ptr noundef nonnull @archive_read_format_zip_options, ptr noundef nonnull @archive_read_format_zip_seekable_read_header, ptr noundef nonnull @archive_read_format_zip_read_data, ptr noundef nonnull @archive_read_format_zip_read_data_skip_seekable, ptr noundef null, ptr noundef nonnull @archive_read_format_zip_cleanup, ptr noundef nonnull @archive_read_support_format_zip_capabilities_seekable, ptr noundef nonnull @archive_read_format_zip_has_encrypted_entries) #21
  %.not14 = icmp eq i32 %10, 0
  br i1 %.not14, label %12, label %11

11:                                               ; preds = %7
  tail call void @free(ptr noundef nonnull %4) #21
  br label %12

12:                                               ; preds = %7, %11, %1, %6
  %.1 = phi i32 [ -30, %6 ], [ -30, %1 ], [ 0, %11 ], [ 0, %7 ]
  ret i32 %.1
}